target datalayout = "e-m:e-p270:32:32-p271:32:32-p272:64:64-i64:64-i128:128-f80:128-n8:16:32:64-S128"
target triple = "x86_64-pc-linux-gnu"

%struct.FT_Vector_ = type { i64, i64 }
%struct.SDF_Edge_ = type { %struct.FT_Vector_, %struct.FT_Vector_, %struct.FT_Vector_, %struct.FT_Vector_, i32, ptr }

@null_edge = internal constant { %struct.FT_Vector_, %struct.FT_Vector_, %struct.FT_Vector_, %struct.FT_Vector_, i32, [4 x i8], ptr } zeroinitializer, align 8

; Function Attrs: nounwind uwtable
define internal i32 @sdf_edge_new(ptr noundef %0, ptr noundef %1) #0 {
  %3 = alloca ptr, align 8
  %4 = alloca ptr, align 8
  %5 = alloca i32, align 4
  %6 = alloca ptr, align 8
  store ptr %0, ptr %3, align 8, !tbaa !38
  store ptr %1, ptr %4, align 8, !tbaa !192
  call void @llvm.lifetime.start.p0(i64 4, ptr %5) #7
  store i32 0, ptr %5, align 4, !tbaa !31
  call void @llvm.lifetime.start.p0(i64 8, ptr %6) #7
  store ptr null, ptr %6, align 8, !tbaa !182
  %7 = load ptr, ptr %3, align 8, !tbaa !38
  %8 = icmp ne ptr %7, null
  br i1 %8, label %9, label %12

9:                                                ; preds = %2
  %10 = load ptr, ptr %4, align 8, !tbaa !192
  %11 = icmp ne ptr %10, null
  br i1 %11, label %13, label %12

12:                                               ; preds = %9, %2
  store i32 6, ptr %5, align 4, !tbaa !31
  br label %23

13:                                               ; preds = %9
  %14 = load ptr, ptr %3, align 8, !tbaa !38
  %15 = call ptr @ft_mem_qalloc(ptr noundef %14, i64 noundef 80, ptr noundef %5)
  store ptr %15, ptr %6, align 8, !tbaa !182
  %16 = load i32, ptr %5, align 4, !tbaa !31
  %17 = icmp ne i32 %16, 0
  br i1 %17, label %22, label %18

18:                                               ; preds = %13
  %19 = load ptr, ptr %6, align 8, !tbaa !182
  call void @llvm.memcpy.p0.p0.i64(ptr align 8 %19, ptr align 8 @null_edge, i64 80, i1 false), !tbaa.struct !194
  %20 = load ptr, ptr %6, align 8, !tbaa !182
  %21 = load ptr, ptr %4, align 8, !tbaa !192
  store ptr %20, ptr %21, align 8, !tbaa !182
  br label %22

22:                                               ; preds = %18, %13
  br label %23

23:                                               ; preds = %22, %12
  %24 = load i32, ptr %5, align 4, !tbaa !31
  call void @llvm.lifetime.end.p0(i64 8, ptr %6) #7
  call void @llvm.lifetime.end.p0(i64 4, ptr %5) #7
  ret i32 %24
}

; Function Attrs: nounwind uwtable
define internal void @split_conic(ptr noundef %0) #0 {
  %2 = alloca ptr, align 8
  %3 = alloca i32, align 4
  %4 = alloca i32, align 4
  store ptr %0, ptr %2, align 8, !tbaa !32
  call void @llvm.lifetime.start.p0(i64 4, ptr %3) #7
  call void @llvm.lifetime.start.p0(i64 4, ptr %4) #7
  %5 = load ptr, ptr %2, align 8, !tbaa !32
  %6 = getelementptr inbounds %struct.FT_Vector_, ptr %5, i64 2
  %7 = getelementptr inbounds nuw %struct.FT_Vector_, ptr %6, i32 0, i32 0
  %8 = load i64, ptr %7, align 8, !tbaa !67
  %9 = load ptr, ptr %2, align 8, !tbaa !32
  %10 = getelementptr inbounds %struct.FT_Vector_, ptr %9, i64 4
  %11 = getelementptr inbounds nuw %struct.FT_Vector_, ptr %10, i32 0, i32 0
  store i64 %8, ptr %11, align 8, !tbaa !67
  %12 = load ptr, ptr %2, align 8, !tbaa !32
  %13 = getelementptr inbounds %struct.FT_Vector_, ptr %12, i64 0
  %14 = getelementptr inbounds nuw %struct.FT_Vector_, ptr %13, i32 0, i32 0
  %15 = load i64, ptr %14, align 8, !tbaa !67
  %16 = load ptr, ptr %2, align 8, !tbaa !32
  %17 = getelementptr inbounds %struct.FT_Vector_, ptr %16, i64 1
  %18 = getelementptr inbounds nuw %struct.FT_Vector_, ptr %17, i32 0, i32 0
  %19 = load i64, ptr %18, align 8, !tbaa !67
  %20 = add nsw i64 %15, %19
  %21 = trunc i64 %20 to i32
  store i32 %21, ptr %3, align 4, !tbaa !31
  %22 = load ptr, ptr %2, align 8, !tbaa !32
  %23 = getelementptr inbounds %struct.FT_Vector_, ptr %22, i64 1
  %24 = getelementptr inbounds nuw %struct.FT_Vector_, ptr %23, i32 0, i32 0
  %25 = load i64, ptr %24, align 8, !tbaa !67
  %26 = load ptr, ptr %2, align 8, !tbaa !32
  %27 = getelementptr inbounds %struct.FT_Vector_, ptr %26, i64 2
  %28 = getelementptr inbounds nuw %struct.FT_Vector_, ptr %27, i32 0, i32 0
  %29 = load i64, ptr %28, align 8, !tbaa !67
  %30 = add nsw i64 %25, %29
  %31 = trunc i64 %30 to i32
  store i32 %31, ptr %4, align 4, !tbaa !31
  %32 = load i32, ptr %4, align 4, !tbaa !31
  %33 = sdiv i32 %32, 2
  %34 = sext i32 %33 to i64
  %35 = load ptr, ptr %2, align 8, !tbaa !32
  %36 = getelementptr inbounds %struct.FT_Vector_, ptr %35, i64 3
  %37 = getelementptr inbounds nuw %struct.FT_Vector_, ptr %36, i32 0, i32 0
  store i64 %34, ptr %37, align 8, !tbaa !67
  %38 = load i32, ptr %3, align 4, !tbaa !31
  %39 = load i32, ptr %4, align 4, !tbaa !31
  %40 = add nsw i32 %38, %39
  %41 = sdiv i32 %40, 4
  %42 = sext i32 %41 to i64
  %43 = load ptr, ptr %2, align 8, !tbaa !32
  %44 = getelementptr inbounds %struct.FT_Vector_, ptr %43, i64 2
  %45 = getelementptr inbounds nuw %struct.FT_Vector_, ptr %44, i32 0, i32 0
  store i64 %42, ptr %45, align 8, !tbaa !67
  %46 = load i32, ptr %3, align 4, !tbaa !31
  %47 = sdiv i32 %46, 2
  %48 = sext i32 %47 to i64
  %49 = load ptr, ptr %2, align 8, !tbaa !32
  %50 = getelementptr inbounds %struct.FT_Vector_, ptr %49, i64 1
  %51 = getelementptr inbounds nuw %struct.FT_Vector_, ptr %50, i32 0, i32 0
  store i64 %48, ptr %51, align 8, !tbaa !67
  %52 = load ptr, ptr %2, align 8, !tbaa !32
  %53 = getelementptr inbounds %struct.FT_Vector_, ptr %52, i64 2
  %54 = getelementptr inbounds nuw %struct.FT_Vector_, ptr %53, i32 0, i32 1
  %55 = load i64, ptr %54, align 8, !tbaa !68
  %56 = load ptr, ptr %2, align 8, !tbaa !32
  %57 = getelementptr inbounds %struct.FT_Vector_, ptr %56, i64 4
  %58 = getelementptr inbounds nuw %struct.FT_Vector_, ptr %57, i32 0, i32 1
  store i64 %55, ptr %58, align 8, !tbaa !68
  %59 = load ptr, ptr %2, align 8, !tbaa !32
  %60 = getelementptr inbounds %struct.FT_Vector_, ptr %59, i64 0
  %61 = getelementptr inbounds nuw %struct.FT_Vector_, ptr %60, i32 0, i32 1
  %62 = load i64, ptr %61, align 8, !tbaa !68
  %63 = load ptr, ptr %2, align 8, !tbaa !32
  %64 = getelementptr inbounds %struct.FT_Vector_, ptr %63, i64 1
  %65 = getelementptr inbounds nuw %struct.FT_Vector_, ptr %64, i32 0, i32 1
  %66 = load i64, ptr %65, align 8, !tbaa !68
  %67 = add nsw i64 %62, %66
  %68 = trunc i64 %67 to i32
  store i32 %68, ptr %3, align 4, !tbaa !31
  %69 = load ptr, ptr %2, align 8, !tbaa !32
  %70 = getelementptr inbounds %struct.FT_Vector_, ptr %69, i64 1
  %71 = getelementptr inbounds nuw %struct.FT_Vector_, ptr %70, i32 0, i32 1
  %72 = load i64, ptr %71, align 8, !tbaa !68
  %73 = load ptr, ptr %2, align 8, !tbaa !32
  %74 = getelementptr inbounds %struct.FT_Vector_, ptr %73, i64 2
  %75 = getelementptr inbounds nuw %struct.FT_Vector_, ptr %74, i32 0, i32 1
  %76 = load i64, ptr %75, align 8, !tbaa !68
  %77 = add nsw i64 %72, %76
  %78 = trunc i64 %77 to i32
  store i32 %78, ptr %4, align 4, !tbaa !31
  %79 = load i32, ptr %4, align 4, !tbaa !31
  %80 = sdiv i32 %79, 2
  %81 = sext i32 %80 to i64
  %82 = load ptr, ptr %2, align 8, !tbaa !32
  %83 = getelementptr inbounds %struct.FT_Vector_, ptr %82, i64 3
  %84 = getelementptr inbounds nuw %struct.FT_Vector_, ptr %83, i32 0, i32 1
  store i64 %81, ptr %84, align 8, !tbaa !68
  %85 = load i32, ptr %3, align 4, !tbaa !31
  %86 = load i32, ptr %4, align 4, !tbaa !31
  %87 = add nsw i32 %85, %86
  %88 = sdiv i32 %87, 4
  %89 = sext i32 %88 to i64
  %90 = load ptr, ptr %2, align 8, !tbaa !32
  %91 = getelementptr inbounds %struct.FT_Vector_, ptr %90, i64 2
  %92 = getelementptr inbounds nuw %struct.FT_Vector_, ptr %91, i32 0, i32 1
  store i64 %89, ptr %92, align 8, !tbaa !68
  %93 = load i32, ptr %3, align 4, !tbaa !31
  %94 = sdiv i32 %93, 2
  %95 = sext i32 %94 to i64
  %96 = load ptr, ptr %2, align 8, !tbaa !32
  %97 = getelementptr inbounds %struct.FT_Vector_, ptr %96, i64 1
  %98 = getelementptr inbounds nuw %struct.FT_Vector_, ptr %97, i32 0, i32 1
  store i64 %95, ptr %98, align 8, !tbaa !68
  call void @llvm.lifetime.end.p0(i64 4, ptr %4) #7
  call void @llvm.lifetime.end.p0(i64 4, ptr %3) #7
  ret void
}

; Function Attrs: nounwind uwtable
define internal i32 @split_sdf_conic(ptr noundef %0, ptr noundef %1, i32 noundef %2, ptr noundef %3) #0 {
  %5 = alloca ptr, align 8
  %6 = alloca ptr, align 8
  %7 = alloca i32, align 4
  %8 = alloca ptr, align 8
  %9 = alloca i32, align 4
  %10 = alloca [5 x %struct.FT_Vector_], align 16
  %11 = alloca ptr, align 8
  %12 = alloca ptr, align 8
  store ptr %0, ptr %5, align 8, !tbaa !38
  store ptr %1, ptr %6, align 8, !tbaa !32
  store i32 %2, ptr %7, align 4, !tbaa !31
  store ptr %3, ptr %8, align 8, !tbaa !192
  call void @llvm.lifetime.start.p0(i64 4, ptr %9) #7
  store i32 0, ptr %9, align 4, !tbaa !31
  call void @llvm.lifetime.start.p0(i64 80, ptr %10) #7
  call void @llvm.lifetime.start.p0(i64 8, ptr %11) #7
  call void @llvm.lifetime.start.p0(i64 8, ptr %12) #7
  %13 = load ptr, ptr %5, align 8, !tbaa !38
  %14 = icmp ne ptr %13, null
  br i1 %14, label %15, label %18

15:                                               ; preds = %4
  %16 = load ptr, ptr %8, align 8, !tbaa !192
  %17 = icmp ne ptr %16, null
  br i1 %17, label %19, label %18

18:                                               ; preds = %15, %4
  store i32 6, ptr %9, align 4, !tbaa !31
  br label %104

19:                                               ; preds = %15
  %20 = getelementptr inbounds [5 x %struct.FT_Vector_], ptr %10, i64 0, i64 0
  %21 = load ptr, ptr %6, align 8, !tbaa !32
  %22 = getelementptr inbounds %struct.FT_Vector_, ptr %21, i64 0
  call void @llvm.memcpy.p0.p0.i64(ptr align 16 %20, ptr align 8 %22, i64 16, i1 false), !tbaa.struct !146
  %23 = getelementptr inbounds [5 x %struct.FT_Vector_], ptr %10, i64 0, i64 1
  %24 = load ptr, ptr %6, align 8, !tbaa !32
  %25 = getelementptr inbounds %struct.FT_Vector_, ptr %24, i64 1
  call void @llvm.memcpy.p0.p0.i64(ptr align 16 %23, ptr align 8 %25, i64 16, i1 false), !tbaa.struct !146
  %26 = getelementptr inbounds [5 x %struct.FT_Vector_], ptr %10, i64 0, i64 2
  %27 = load ptr, ptr %6, align 8, !tbaa !32
  %28 = getelementptr inbounds %struct.FT_Vector_, ptr %27, i64 2
  call void @llvm.memcpy.p0.p0.i64(ptr align 16 %26, ptr align 8 %28, i64 16, i1 false), !tbaa.struct !146
  %29 = getelementptr inbounds [5 x %struct.FT_Vector_], ptr %10, i64 0, i64 0
  call void @split_conic(ptr noundef %29)
  %30 = load i32, ptr %7, align 4, !tbaa !31
  %31 = icmp ule i32 %30, 2
  br i1 %31, label %32, label %33

32:                                               ; preds = %19
  br label %60

33:                                               ; preds = %19
  br label %34

34:                                               ; preds = %33
  %35 = load ptr, ptr %5, align 8, !tbaa !38
  %36 = getelementptr inbounds [5 x %struct.FT_Vector_], ptr %10, i64 0, i64 0
  %37 = load i32, ptr %7, align 4, !tbaa !31
  %38 = udiv i32 %37, 2
  %39 = load ptr, ptr %8, align 8, !tbaa !192
  %40 = call i32 @split_sdf_conic(ptr noundef %35, ptr noundef %36, i32 noundef %38, ptr noundef %39)
  store i32 %40, ptr %9, align 4, !tbaa !31
  %41 = load i32, ptr %9, align 4, !tbaa !31
  %42 = icmp ne i32 %41, 0
  br i1 %42, label %43, label %44

43:                                               ; preds = %34
  br label %104

44:                                               ; preds = %34
  br label %45

45:                                               ; preds = %44
  br label %46

46:                                               ; preds = %45
  br label %47

47:                                               ; preds = %46
  %48 = load ptr, ptr %5, align 8, !tbaa !38
  %49 = getelementptr inbounds [5 x %struct.FT_Vector_], ptr %10, i64 0, i64 2
  %50 = load i32, ptr %7, align 4, !tbaa !31
  %51 = udiv i32 %50, 2
  %52 = load ptr, ptr %8, align 8, !tbaa !192
  %53 = call i32 @split_sdf_conic(ptr noundef %48, ptr noundef %49, i32 noundef %51, ptr noundef %52)
  store i32 %53, ptr %9, align 4, !tbaa !31
  %54 = load i32, ptr %9, align 4, !tbaa !31
  %55 = icmp ne i32 %54, 0
  br i1 %55, label %56, label %57

56:                                               ; preds = %47
  br label %104

57:                                               ; preds = %47
  br label %58

58:                                               ; preds = %57
  br label %59

59:                                               ; preds = %58
  br label %104

60:                                               ; preds = %32
  br label %61

61:                                               ; preds = %60
  %62 = load ptr, ptr %5, align 8, !tbaa !38
  %63 = call i32 @sdf_edge_new(ptr noundef %62, ptr noundef %11)
  store i32 %63, ptr %9, align 4, !tbaa !31
  %64 = load i32, ptr %9, align 4, !tbaa !31
  %65 = icmp ne i32 %64, 0
  br i1 %65, label %66, label %67

66:                                               ; preds = %61
  br label %104

67:                                               ; preds = %61
  br label %68

68:                                               ; preds = %67
  br label %69

69:                                               ; preds = %68
  br label %70

70:                                               ; preds = %69
  %71 = load ptr, ptr %5, align 8, !tbaa !38
  %72 = call i32 @sdf_edge_new(ptr noundef %71, ptr noundef %12)
  store i32 %72, ptr %9, align 4, !tbaa !31
  %73 = load i32, ptr %9, align 4, !tbaa !31
  %74 = icmp ne i32 %73, 0
  br i1 %74, label %75, label %76

75:                                               ; preds = %70
  br label %104

76:                                               ; preds = %70
  br label %77

77:                                               ; preds = %76
  br label %78

78:                                               ; preds = %77
  %79 = load ptr, ptr %11, align 8, !tbaa !182
  %80 = getelementptr inbounds nuw %struct.SDF_Edge_, ptr %79, i32 0, i32 0
  %81 = getelementptr inbounds [5 x %struct.FT_Vector_], ptr %10, i64 0, i64 0
  call void @llvm.memcpy.p0.p0.i64(ptr align 8 %80, ptr align 16 %81, i64 16, i1 false), !tbaa.struct !146
  %82 = load ptr, ptr %11, align 8, !tbaa !182
  %83 = getelementptr inbounds nuw %struct.SDF_Edge_, ptr %82, i32 0, i32 1
  %84 = getelementptr inbounds [5 x %struct.FT_Vector_], ptr %10, i64 0, i64 2
  call void @llvm.memcpy.p0.p0.i64(ptr align 8 %83, ptr align 16 %84, i64 16, i1 false), !tbaa.struct !146
  %85 = load ptr, ptr %11, align 8, !tbaa !182
  %86 = getelementptr inbounds nuw %struct.SDF_Edge_, ptr %85, i32 0, i32 4
  store i32 1, ptr %86, align 8, !tbaa !185
  %87 = load ptr, ptr %12, align 8, !tbaa !182
  %88 = getelementptr inbounds nuw %struct.SDF_Edge_, ptr %87, i32 0, i32 0
  %89 = getelementptr inbounds [5 x %struct.FT_Vector_], ptr %10, i64 0, i64 2
  call void @llvm.memcpy.p0.p0.i64(ptr align 8 %88, ptr align 16 %89, i64 16, i1 false), !tbaa.struct !146
  %90 = load ptr, ptr %12, align 8, !tbaa !182
  %91 = getelementptr inbounds nuw %struct.SDF_Edge_, ptr %90, i32 0, i32 1
  %92 = getelementptr inbounds [5 x %struct.FT_Vector_], ptr %10, i64 0, i64 4
  call void @llvm.memcpy.p0.p0.i64(ptr align 8 %91, ptr align 16 %92, i64 16, i1 false), !tbaa.struct !146
  %93 = load ptr, ptr %12, align 8, !tbaa !182
  %94 = getelementptr inbounds nuw %struct.SDF_Edge_, ptr %93, i32 0, i32 4
  store i32 1, ptr %94, align 8, !tbaa !185
  %95 = load ptr, ptr %12, align 8, !tbaa !182
  %96 = load ptr, ptr %11, align 8, !tbaa !182
  %97 = getelementptr inbounds nuw %struct.SDF_Edge_, ptr %96, i32 0, i32 5
  store ptr %95, ptr %97, align 8, !tbaa !188
  %98 = load ptr, ptr %8, align 8, !tbaa !192
  %99 = load ptr, ptr %98, align 8, !tbaa !182
  %100 = load ptr, ptr %12, align 8, !tbaa !182
  %101 = getelementptr inbounds nuw %struct.SDF_Edge_, ptr %100, i32 0, i32 5
  store ptr %99, ptr %101, align 8, !tbaa !188
  %102 = load ptr, ptr %11, align 8, !tbaa !182
  %103 = load ptr, ptr %8, align 8, !tbaa !192
  store ptr %102, ptr %103, align 8, !tbaa !182
  br label %104

104:                                              ; preds = %78, %75, %66, %59, %56, %43, %18
  %105 = load i32, ptr %9, align 4, !tbaa !31
  call void @llvm.lifetime.end.p0(i64 8, ptr %12) #7
  call void @llvm.lifetime.end.p0(i64 8, ptr %11) #7
  call void @llvm.lifetime.end.p0(i64 80, ptr %10) #7
  call void @llvm.lifetime.end.p0(i64 4, ptr %9) #7
  ret i32 %105
}