; Function Attrs: nounwind uwtable
define internal fastcc i32 @split_sdf_conic(ptr noundef nonnull %0, ptr noundef nonnull readonly captures(none) %1, i32 noundef %2, ptr noundef nonnull %3) unnamed_addr #2 {
  %5 = alloca i32, align 4
  %6 = alloca i32, align 4
  %7 = alloca [5 x %struct.FT_Vector_], align 16
  call void @llvm.lifetime.start.p0(i64 80, ptr nonnull %7) #11
  call void @llvm.memcpy.p0.p0.i64(ptr noundef nonnull align 16 dereferenceable(16) %7, ptr noundef nonnull align 8 dereferenceable(16) %1, i64 16, i1 false), !tbaa.struct !119
  %8 = getelementptr inbounds nuw i8, ptr %7, i64 16
  %9 = getelementptr inbounds nuw i8, ptr %1, i64 16
  call void @llvm.memcpy.p0.p0.i64(ptr noundef nonnull align 16 dereferenceable(16) %8, ptr noundef nonnull align 8 dereferenceable(16) %9, i64 16, i1 false), !tbaa.struct !119
  %10 = getelementptr inbounds nuw i8, ptr %7, i64 32
  %11 = getelementptr inbounds nuw i8, ptr %1, i64 32
  call void @llvm.memcpy.p0.p0.i64(ptr noundef nonnull align 16 dereferenceable(16) %10, ptr noundef nonnull align 8 dereferenceable(16) %11, i64 16, i1 false), !tbaa.struct !119
  %12 = load i64, ptr %10, align 16, !tbaa !52
  %13 = getelementptr inbounds nuw i8, ptr %7, i64 64
  store i64 %12, ptr %13, align 16, !tbaa !52
  %14 = load i64, ptr %7, align 16, !tbaa !52
  %15 = load i64, ptr %8, align 16, !tbaa !52
  %16 = add nsw i64 %15, %14
  %17 = trunc i64 %16 to i32
  %18 = add nsw i64 %15, %12
  %19 = trunc i64 %18 to i32
  %20 = sdiv i32 %19, 2
  %21 = sext i32 %20 to i64
  %22 = getelementptr inbounds nuw i8, ptr %7, i64 48
  store i64 %21, ptr %22, align 16, !tbaa !52
  %23 = add nsw i32 %17, %19
  %24 = sdiv i32 %23, 4
  %25 = sext i32 %24 to i64
  store i64 %25, ptr %10, align 16, !tbaa !52
  %26 = sdiv i32 %17, 2
  %27 = sext i32 %26 to i64
  store i64 %27, ptr %8, align 16, !tbaa !52
  %28 = getelementptr inbounds nuw i8, ptr %7, i64 40
  %29 = load i64, ptr %28, align 8, !tbaa !53
  %30 = getelementptr inbounds nuw i8, ptr %7, i64 72
  store i64 %29, ptr %30, align 8, !tbaa !53
  %31 = getelementptr inbounds nuw i8, ptr %7, i64 8
  %32 = load i64, ptr %31, align 8, !tbaa !53
  %33 = getelementptr inbounds nuw i8, ptr %7, i64 24
  %34 = load i64, ptr %33, align 8, !tbaa !53
  %35 = add nsw i64 %34, %32
  %36 = trunc i64 %35 to i32
  %37 = add nsw i64 %34, %29
  %38 = trunc i64 %37 to i32
  %39 = sdiv i32 %38, 2
  %40 = sext i32 %39 to i64
  %41 = getelementptr inbounds nuw i8, ptr %7, i64 56
  store i64 %40, ptr %41, align 8, !tbaa !53
  %42 = add nsw i32 %36, %38
  %43 = sdiv i32 %42, 4
  %44 = sext i32 %43 to i64
  store i64 %44, ptr %28, align 8, !tbaa !53
  %45 = sdiv i32 %36, 2
  %46 = sext i32 %45 to i64
  store i64 %46, ptr %33, align 8, !tbaa !53
  %47 = icmp ult i32 %2, 3
  br i1 %47, label %53, label %48

48:                                               ; preds = %4
  %49 = lshr i32 %2, 1
  %50 = call fastcc i32 @split_sdf_conic(ptr noundef %0, ptr noundef %7, i32 noundef %49, ptr noundef %3)
  %.not = icmp eq i32 %50, 0
  br i1 %.not, label %51, label %68

51:                                               ; preds = %48
  %52 = call fastcc i32 @split_sdf_conic(ptr noundef %0, ptr noundef %10, i32 noundef %49, ptr noundef %3)
  br label %68

53:                                               ; preds = %4
  call void @llvm.lifetime.start.p0(i64 4, ptr nonnull %6) #11
  store i32 0, ptr %6, align 4, !tbaa !21
  %54 = call ptr @ft_mem_qalloc(ptr noundef nonnull %0, i64 noundef 80, ptr noundef nonnull %6) #11
  %55 = load i32, ptr %6, align 4, !tbaa !21
  %.not8.i = icmp eq i32 %55, 0
  br i1 %.not8.i, label %56, label %sdf_edge_new.exit

sdf_edge_new.exit:                                ; preds = %53
  call void @llvm.lifetime.end.p0(i64 4, ptr nonnull %6) #11
  br label %68

56:                                               ; preds = %53
  call void @llvm.memset.p0.i64(ptr noundef nonnull align 8 dereferenceable(80) %54, i8 0, i64 80, i1 false)
  call void @llvm.lifetime.end.p0(i64 4, ptr nonnull %6) #11
  call void @llvm.lifetime.start.p0(i64 4, ptr nonnull %5) #11
  store i32 0, ptr %5, align 4, !tbaa !21
  %57 = call ptr @ft_mem_qalloc(ptr noundef nonnull %0, i64 noundef 80, ptr noundef nonnull %5) #11
  %58 = load i32, ptr %5, align 4, !tbaa !21
  %.not8.i28 = icmp eq i32 %58, 0
  br i1 %.not8.i28, label %59, label %sdf_edge_new.exit29

sdf_edge_new.exit29:                              ; preds = %56
  call void @llvm.lifetime.end.p0(i64 4, ptr nonnull %5) #11
  br label %68

59:                                               ; preds = %56
  %60 = getelementptr inbounds nuw i8, ptr %57, i64 32
  call void @llvm.memset.p0.i64(ptr noundef nonnull align 8 dereferenceable(80) %60, i8 0, i64 48, i1 false)
  call void @llvm.lifetime.end.p0(i64 4, ptr nonnull %5) #11
  call void @llvm.memcpy.p0.p0.i64(ptr noundef nonnull align 8 dereferenceable(16) %54, ptr noundef nonnull align 16 dereferenceable(16) %7, i64 16, i1 false), !tbaa.struct !119
  %61 = getelementptr inbounds nuw i8, ptr %54, i64 16
  call void @llvm.memcpy.p0.p0.i64(ptr noundef nonnull align 8 dereferenceable(16) %61, ptr noundef nonnull align 16 dereferenceable(16) %10, i64 16, i1 false), !tbaa.struct !119
  %62 = getelementptr inbounds nuw i8, ptr %54, i64 64
  store i32 1, ptr %62, align 8, !tbaa !136
  call void @llvm.memcpy.p0.p0.i64(ptr noundef nonnull align 8 dereferenceable(16) %57, ptr noundef nonnull align 16 dereferenceable(16) %10, i64 16, i1 false), !tbaa.struct !119
  %63 = getelementptr inbounds nuw i8, ptr %57, i64 16
  call void @llvm.memcpy.p0.p0.i64(ptr noundef nonnull align 8 dereferenceable(16) %63, ptr noundef nonnull align 16 dereferenceable(16) %13, i64 16, i1 false), !tbaa.struct !119
  %64 = getelementptr inbounds nuw i8, ptr %57, i64 64
  store i32 1, ptr %64, align 8, !tbaa !136
  %65 = getelementptr inbounds nuw i8, ptr %54, i64 72
  store ptr %57, ptr %65, align 8, !tbaa !146
  %66 = load ptr, ptr %3, align 8, !tbaa !153
  %67 = getelementptr inbounds nuw i8, ptr %57, i64 72
  store ptr %66, ptr %67, align 8, !tbaa !146
  store ptr %54, ptr %3, align 8, !tbaa !153
  br label %68

68:                                               ; preds = %sdf_edge_new.exit29, %sdf_edge_new.exit, %51, %48, %59
  %.0 = phi i32 [ %55, %sdf_edge_new.exit ], [ %58, %sdf_edge_new.exit29 ], [ 0, %59 ], [ %50, %48 ], [ %52, %51 ]
  call void @llvm.lifetime.end.p0(i64 80, ptr nonnull %7) #11
  ret i32 %.0
}